EXPORTS
    _ZN13MulticonjuntoI7PersonaE5anadeERKS0_ @1
    _ZN13MulticonjuntoI7PersonaE7eliminaERKS0_ @2
    _ZN13MulticonjuntoIcE5anadeERKc @3
    _ZN13MulticonjuntoIcE7eliminaERKc @4
    _ZN13MulticonjuntoIiE5anadeERKi @5
    _ZN13MulticonjuntoIiE7eliminaERKi @6
    _ZN7Persona7setEdadEi @7
    _ZN7Persona9setNombreERKNSt7__cxx1112basic_stringIcSt11char_traitsIcESaIcEEE @8
    _ZN7PersonaaSERKS_ @9
    _ZNK13MulticonjuntoI7PersonaE12cardinalidadEv @10
    _ZNK13MulticonjuntoI7PersonaE7esVacioEv @11
    _ZNK13MulticonjuntoI7PersonaE9perteneceERKS0_ @12
    _ZNK13MulticonjuntoIcE12cardinalidadEv @13
    _ZNK13MulticonjuntoIcE7esVacioEv @14
    _ZNK13MulticonjuntoIcE9perteneceERKc @15
    _ZNK13MulticonjuntoIiE12cardinalidadEv @16
    _ZNK13MulticonjuntoIiE7esVacioEv @17
    _ZNK13MulticonjuntoIiE9perteneceERKi @18
    _ZNK7Persona7getEdadEv @19
    _ZNK7Persona9getNombreB5cxx11Ev @20
    _ZNK7PersonaeqERKS_ @21
    _ZNSt11char_traitsIcE7compareEPKcS2_y @22
    _ZSteqIcEN9__gnu_cxx11__enable_ifIXsrSt9__is_charIT_E7__valueEbE6__typeERKNSt7__cxx1112basic_stringIS3_St11char_traitsIS3_ESaIS3_EEESE_ @23
